; Function Attrs: mustprogress uwtable
define void @_Z30grpc_create_socketpair_if_unixPi(ptr noundef %0) local_unnamed_addr #3 personality ptr @__gxx_personality_v0 {
  %2 = alloca %"class.absl::lts_20240722::log_internal::LogMessageFatal", align 8
  %3 = tail call i32 @socketpair(i32 noundef 1, i32 noundef 1, i32 noundef 0, ptr noundef %0) #16
  %4 = icmp eq i32 %3, 0
  br i1 %4, label %5, label %6, !prof !3

5:                                                ; preds = %1
  ret void

6:                                                ; preds = %1
  %7 = sext i32 %3 to i64
  %8 = tail call noundef nonnull ptr @_ZN4absl12lts_2024072212log_internal17MakeCheckOpStringIllEEPNSt7__cxx1112basic_stringIcSt11char_traitsIcESaIcEEET_T0_PKc(i64 noundef %7, i64 noundef 0, ptr noundef nonnull @.str)
  call void @llvm.lifetime.start.p0(i64 16, ptr nonnull %2) #16
  %9 = load ptr, ptr %8, align 8, !tbaa !4
  %10 = getelementptr inbounds nuw i8, ptr %8, i64 8
  %11 = load i64, ptr %10, align 8, !tbaa !12
  call void @_ZN4absl12lts_2024072212log_internal15LogMessageFatalC1EPKciSt17basic_string_viewIcSt11char_traitsIcEE(ptr noundef nonnull align 8 dereferenceable(16) %2, ptr noundef nonnull @.str.1, i32 noundef 51, i64 %11, ptr %9) #17
  call void @_ZN4absl12lts_2024072212log_internal15LogMessageFatalD1Ev(ptr noundef nonnull align 8 dereferenceable(16) %2) #18
  unreachable
}